target datalayout = "e-m:e-p270:32:32-p271:32:32-p272:64:64-i64:64-i128:128-f80:128-n8:16:32:64-S128"
target triple = "x86_64-pc-linux-gnu"

%"class.std::__cxx11::basic_string" = type { %"struct.std::__cxx11::basic_string<char>::_Alloc_hider", i64, %union.anon }
%"struct.std::__cxx11::basic_string<char>::_Alloc_hider" = type { ptr }
%union.anon = type { i64, [8 x i8] }
%"class.rocksdb::Status" = type { i8, i8, i8, i8, i8, i8, %"class.std::unique_ptr" }
%"class.std::unique_ptr" = type { %"struct.std::__uniq_ptr_data" }
%"struct.std::__uniq_ptr_data" = type { %"class.std::__uniq_ptr_impl" }
%"class.std::__uniq_ptr_impl" = type { %"class.std::tuple" }
%"class.std::tuple" = type { %"struct.std::_Tuple_impl" }
%"struct.std::_Tuple_impl" = type { %"struct.std::_Head_base.1" }
%"struct.std::_Head_base.1" = type { ptr }
%"struct.rocksdb::FileState" = type { %"class.std::__cxx11::basic_string", i64, i64, i64 }

; Function Attrs: mustprogress uwtable
define void @_ZNK7rocksdb9FileState16DropUnsyncedDataEPNS_3EnvE(ptr dead_on_unwind noalias writable sret(%"class.rocksdb::Status") align 8 %0, ptr noundef nonnull align 8 dereferenceable(56) %1, ptr noundef %2) #0 align 2 {
  %4 = alloca ptr, align 8
  %5 = alloca ptr, align 8
  %6 = alloca ptr, align 8
  %7 = alloca i64, align 8
  store ptr %0, ptr %4, align 8
  store ptr %1, ptr %5, align 8, !tbaa !72
  store ptr %2, ptr %6, align 8, !tbaa !15
  %8 = load ptr, ptr %5, align 8
  call void @llvm.lifetime.start.p0(i64 8, ptr %7) #17
  %9 = getelementptr inbounds nuw %"struct.rocksdb::FileState", ptr %8, i32 0, i32 2
  %10 = load i64, ptr %9, align 8, !tbaa !74
  %11 = icmp eq i64 %10, -1
  br i1 %11, label %12, label %13

12:                                               ; preds = %3
  br label %16

13:                                               ; preds = %3
  %14 = getelementptr inbounds nuw %"struct.rocksdb::FileState", ptr %8, i32 0, i32 2
  %15 = load i64, ptr %14, align 8, !tbaa !74
  br label %16

16:                                               ; preds = %13, %12
  %17 = phi i64 [ 0, %12 ], [ %15, %13 ]
  store i64 %17, ptr %7, align 8, !tbaa !9
  %18 = load ptr, ptr %6, align 8, !tbaa !15
  %19 = getelementptr inbounds nuw %"struct.rocksdb::FileState", ptr %8, i32 0, i32 0
  %20 = load i64, ptr %7, align 8, !tbaa !9
  call void @_ZN7rocksdb8TruncateEPNS_3EnvERKNSt7__cxx1112basic_stringIcSt11char_traitsIcESaIcEEEm(ptr dead_on_unwind writable sret(%"class.rocksdb::Status") align 8 %0, ptr noundef %18, ptr noundef nonnull align 8 dereferenceable(32) %19, i64 noundef %20)
  call void @llvm.lifetime.end.p0(i64 8, ptr %7) #17
  ret void
}

; Function Attrs: inlinehint mustprogress uwtable
define internal void @"_ZZN7rocksdb21FaultInjectionTestEnv20DropUnsyncedFileDataEvENK3$_0clEPNS_3EnvERKNS_9FileStateE"(ptr dead_on_unwind noalias writable sret(%"class.rocksdb::Status") align 8 %0, ptr noundef nonnull align 1 dereferenceable(1) %1, ptr noundef %2, ptr noundef nonnull align 8 dereferenceable(56) %3) #7 align 2 {
  %5 = alloca ptr, align 8
  %6 = alloca ptr, align 8
  %7 = alloca ptr, align 8
  %8 = alloca ptr, align 8
  store ptr %0, ptr %5, align 8
  store ptr %1, ptr %6, align 8, !tbaa !244
  store ptr %2, ptr %7, align 8, !tbaa !15
  store ptr %3, ptr %8, align 8, !tbaa !72
  %9 = load ptr, ptr %8, align 8, !tbaa !72
  %10 = load ptr, ptr %7, align 8, !tbaa !15
  call void @_ZNK7rocksdb9FileState16DropUnsyncedDataEPNS_3EnvE(ptr dead_on_unwind writable sret(%"class.rocksdb::Status") align 8 %0, ptr noundef nonnull align 8 dereferenceable(56) %9, ptr noundef %10)
  ret void
}

; Function Attrs: mustprogress nounwind uwtable
define linkonce_odr noundef ptr @_ZNKSt9_Any_data9_M_accessEv(ptr noundef nonnull align 8 dereferenceable(16) %0) #2 comdat align 2 {
  %2 = alloca ptr, align 8
  store ptr %0, ptr %2, align 8, !tbaa !632
  %3 = load ptr, ptr %2, align 8
  %4 = getelementptr inbounds [16 x i8], ptr %3, i64 0, i64 0
  ret ptr %4
}

; Function Attrs: mustprogress uwtable
define internal void @"_ZSt13__invoke_implIN7rocksdb6StatusERZNS0_21FaultInjectionTestEnv20DropUnsyncedFileDataEvE3$_0JPNS0_3EnvENS0_9FileStateEEET_St14__invoke_otherOT0_DpOT1_"(ptr dead_on_unwind noalias writable sret(%"class.rocksdb::Status") align 8 %0, ptr noundef nonnull align 1 dereferenceable(1) %1, ptr noundef nonnull align 8 dereferenceable(8) %2, ptr noundef nonnull align 8 dereferenceable(56) %3) #0 {
  %5 = alloca ptr, align 8
  %6 = alloca ptr, align 8
  %7 = alloca ptr, align 8
  %8 = alloca ptr, align 8
  store ptr %0, ptr %5, align 8
  store ptr %1, ptr %6, align 8, !tbaa !244
  store ptr %2, ptr %7, align 8, !tbaa !634
  store ptr %3, ptr %8, align 8, !tbaa !72
  %9 = load ptr, ptr %6, align 8, !tbaa !244
  %10 = load ptr, ptr %7, align 8, !tbaa !634
  %11 = load ptr, ptr %10, align 8, !tbaa !15
  %12 = load ptr, ptr %8, align 8, !tbaa !72
  call void @"_ZZN7rocksdb21FaultInjectionTestEnv20DropUnsyncedFileDataEvENK3$_0clEPNS_3EnvERKNS_9FileStateE"(ptr dead_on_unwind writable sret(%"class.rocksdb::Status") align 8 %0, ptr noundef nonnull align 1 dereferenceable(1) %9, ptr noundef %11, ptr noundef nonnull align 8 dereferenceable(56) %12)
  ret void
}

; Function Attrs: mustprogress nounwind uwtable
define internal noundef nonnull align 1 dereferenceable(1) ptr @"_ZNKSt9_Any_data9_M_accessIZN7rocksdb21FaultInjectionTestEnv20DropUnsyncedFileDataEvE3$_0EERKT_v"(ptr noundef nonnull align 8 dereferenceable(16) %0) #2 align 2 {
  %2 = alloca ptr, align 8
  store ptr %0, ptr %2, align 8, !tbaa !632
  %3 = load ptr, ptr %2, align 8
  %4 = call noundef ptr @_ZNKSt9_Any_data9_M_accessEv(ptr noundef nonnull align 8 dereferenceable(16) %3) #17
  ret ptr %4
}

; Function Attrs: mustprogress uwtable
define internal void @"_ZSt10__invoke_rIN7rocksdb6StatusERZNS0_21FaultInjectionTestEnv20DropUnsyncedFileDataEvE3$_0JPNS0_3EnvENS0_9FileStateEEENSt9enable_ifIX16is_invocable_r_vIT_T0_DpT1_EES9_E4typeEOSA_DpOSB_"(ptr dead_on_unwind noalias writable sret(%"class.rocksdb::Status") align 8 %0, ptr noundef nonnull align 1 dereferenceable(1) %1, ptr noundef nonnull align 8 dereferenceable(8) %2, ptr noundef nonnull align 8 dereferenceable(56) %3) #0 {
  %5 = alloca ptr, align 8
  %6 = alloca ptr, align 8
  %7 = alloca ptr, align 8
  %8 = alloca ptr, align 8
  store ptr %0, ptr %5, align 8
  store ptr %1, ptr %6, align 8, !tbaa !244
  store ptr %2, ptr %7, align 8, !tbaa !634
  store ptr %3, ptr %8, align 8, !tbaa !72
  %9 = load ptr, ptr %6, align 8, !tbaa !244
  %10 = load ptr, ptr %7, align 8, !tbaa !634
  %11 = load ptr, ptr %8, align 8, !tbaa !72
  call void @"_ZSt13__invoke_implIN7rocksdb6StatusERZNS0_21FaultInjectionTestEnv20DropUnsyncedFileDataEvE3$_0JPNS0_3EnvENS0_9FileStateEEET_St14__invoke_otherOT0_DpOT1_"(ptr dead_on_unwind writable sret(%"class.rocksdb::Status") align 8 %0, ptr noundef nonnull align 1 dereferenceable(1) %9, ptr noundef nonnull align 8 dereferenceable(8) %10, ptr noundef nonnull align 8 dereferenceable(56) %11)
  ret void
}

; Function Attrs: mustprogress nounwind uwtable
define internal noundef ptr @"_ZNSt14_Function_base13_Base_managerIZN7rocksdb21FaultInjectionTestEnv20DropUnsyncedFileDataEvE3$_0E14_M_get_pointerERKSt9_Any_data"(ptr noundef nonnull align 8 dereferenceable(16) %0) #2 align 2 {
  %2 = alloca ptr, align 8
  %3 = alloca ptr, align 8
  store ptr %0, ptr %2, align 8, !tbaa !632
  call void @llvm.lifetime.start.p0(i64 8, ptr %3) #17
  %4 = load ptr, ptr %2, align 8, !tbaa !632
  %5 = call noundef nonnull align 1 dereferenceable(1) ptr @"_ZNKSt9_Any_data9_M_accessIZN7rocksdb21FaultInjectionTestEnv20DropUnsyncedFileDataEvE3$_0EERKT_v"(ptr noundef nonnull align 8 dereferenceable(16) %4) #17
  store ptr %5, ptr %3, align 8, !tbaa !244
  %6 = load ptr, ptr %3, align 8, !tbaa !244
  call void @llvm.lifetime.end.p0(i64 8, ptr %3) #17
  ret ptr %6
}

; Function Attrs: mustprogress uwtable
define internal void @"_ZNSt17_Function_handlerIFN7rocksdb6StatusEPNS0_3EnvENS0_9FileStateEEZNS0_21FaultInjectionTestEnv20DropUnsyncedFileDataEvE3$_0E9_M_invokeERKSt9_Any_dataOS3_OS4_"(ptr dead_on_unwind noalias writable sret(%"class.rocksdb::Status") align 8 %0, ptr noundef nonnull align 8 dereferenceable(16) %1, ptr noundef nonnull align 8 dereferenceable(8) %2, ptr noundef nonnull align 8 dereferenceable(56) %3) #0 align 2 {
  %5 = alloca ptr, align 8
  %6 = alloca ptr, align 8
  %7 = alloca ptr, align 8
  %8 = alloca ptr, align 8
  store ptr %0, ptr %5, align 8
  store ptr %1, ptr %6, align 8, !tbaa !632
  store ptr %2, ptr %7, align 8, !tbaa !634
  store ptr %3, ptr %8, align 8, !tbaa !72
  %9 = load ptr, ptr %6, align 8, !tbaa !632
  %10 = call noundef ptr @"_ZNSt14_Function_base13_Base_managerIZN7rocksdb21FaultInjectionTestEnv20DropUnsyncedFileDataEvE3$_0E14_M_get_pointerERKSt9_Any_data"(ptr noundef nonnull align 8 dereferenceable(16) %9) #17
  %11 = load ptr, ptr %7, align 8, !tbaa !634
  %12 = load ptr, ptr %8, align 8, !tbaa !72
  call void @"_ZSt10__invoke_rIN7rocksdb6StatusERZNS0_21FaultInjectionTestEnv20DropUnsyncedFileDataEvE3$_0JPNS0_3EnvENS0_9FileStateEEENSt9enable_ifIX16is_invocable_r_vIT_T0_DpT1_EES9_E4typeEOSA_DpOSB_"(ptr dead_on_unwind writable sret(%"class.rocksdb::Status") align 8 %0, ptr noundef nonnull align 1 dereferenceable(1) %10, ptr noundef nonnull align 8 dereferenceable(8) %11, ptr noundef nonnull align 8 dereferenceable(56) %12)
  ret void
}