; Function Attrs: mustprogress uwtable
define internal void @"_ZNSt17_Function_handlerIFN7rocksdb6StatusEPNS0_3EnvENS0_9FileStateEEZNS0_21FaultInjectionTestEnv20DropUnsyncedFileDataEvE3$_0E9_M_invokeERKSt9_Any_dataOS3_OS4_"(ptr dead_on_unwind noalias writable sret(%"class.rocksdb::Status") align 8 %0, ptr nonnull readnone align 8 captures(none) %1, ptr noundef nonnull readonly align 8 captures(none) dereferenceable(8) %2, ptr noundef nonnull align 8 dereferenceable(56) %3) #0 align 2 {
  %.val = load ptr, ptr %2, align 8, !tbaa !272
  %5 = getelementptr inbounds nuw i8, ptr %3, i64 40
  %6 = load i64, ptr %5, align 8, !tbaa !81, !noalias !348
  %7 = icmp eq i64 %6, -1
  %spec.select.i.i.i.i = select i1 %7, i64 0, i64 %6
  tail call void @_ZN7rocksdb8TruncateEPNS_3EnvERKNSt7__cxx1112basic_stringIcSt11char_traitsIcESaIcEEEm(ptr dead_on_unwind writable sret(%"class.rocksdb::Status") align 8 %0, ptr noundef %.val, ptr noundef nonnull align 8 dereferenceable(56) %3, i64 noundef %spec.select.i.i.i.i)
  ret void
}